; ModuleID = '45/1135.c'
source_filename = "45/1135.c"
target datalayout = "e-m:e-p270:32:32-p271:32:32-p272:64:64-i64:64-f80:128-n8:16:32:64-S128"
target triple = "x86_64-pc-linux-gnu"

@.str = private unnamed_addr constant [5 x i8] c"%s%s\00", align 1
@.str.1 = private unnamed_addr constant [3 x i8] c"%d\00", align 1

; Function Attrs: noinline nounwind uwtable
define dso_local i32 @main() #0 {
  %1 = alloca i32, align 4
  %2 = alloca i32, align 4
  %3 = alloca i32, align 4
  %4 = alloca i32, align 4
  %5 = alloca i32, align 4
  %6 = alloca i32, align 4
  %7 = alloca i32, align 4
  %8 = alloca [51 x i8], align 16
  %9 = alloca [51 x i8], align 16
  store i32 0, i32* %1, align 4
  %10 = call i32 (i8*, ...) @__isoc99_scanf(i8* getelementptr inbounds ([5 x i8], [5 x i8]* @.str, i64 0, i64 0), [51 x i8]* %8, [51 x i8]* %9)
  %11 = getelementptr inbounds [51 x i8], [51 x i8]* %9, i64 0, i64 0
  %12 = call i64 @strlen(i8* %11) #3
  %13 = trunc i64 %12 to i32
  store i32 %13, i32* %3, align 4
  %14 = getelementptr inbounds [51 x i8], [51 x i8]* %8, i64 0, i64 0
  %15 = call i64 @strlen(i8* %14) #3
  %16 = trunc i64 %15 to i32
  store i32 %16, i32* %4, align 4
  store i32 0, i32* %2, align 4
  br label %17

17:                                               ; preds = %53, %0
  %18 = load i32, i32* %2, align 4
  %19 = load i32, i32* %3, align 4
  %20 = icmp slt i32 %18, %19
  br i1 %20, label %21, label %56

21:                                               ; preds = %17
  store i32 1, i32* %5, align 4
  store i32 0, i32* %6, align 4
  %22 = load i32, i32* %2, align 4
  store i32 %22, i32* %7, align 4
  br label %23

23:                                               ; preds = %41, %21
  %24 = load i32, i32* %6, align 4
  %25 = load i32, i32* %4, align 4
  %26 = icmp slt i32 %24, %25
  br i1 %26, label %27, label %46

27:                                               ; preds = %23
  %28 = load i32, i32* %7, align 4
  %29 = sext i32 %28 to i64
  %30 = getelementptr inbounds [51 x i8], [51 x i8]* %9, i64 0, i64 %29
  %31 = load i8, i8* %30, align 1
  %32 = sext i8 %31 to i32
  %33 = load i32, i32* %6, align 4
  %34 = sext i32 %33 to i64
  %35 = getelementptr inbounds [51 x i8], [51 x i8]* %8, i64 0, i64 %34
  %36 = load i8, i8* %35, align 1
  %37 = sext i8 %36 to i32
  %38 = icmp ne i32 %32, %37
  br i1 %38, label %39, label %40

39:                                               ; preds = %27
  store i32 0, i32* %5, align 4
  br label %40

40:                                               ; preds = %39, %27
  br label %41

41:                                               ; preds = %40
  %42 = load i32, i32* %6, align 4
  %43 = add nsw i32 %42, 1
  store i32 %43, i32* %6, align 4
  %44 = load i32, i32* %7, align 4
  %45 = add nsw i32 %44, 1
  store i32 %45, i32* %7, align 4
  br label %23

46:                                               ; preds = %23
  %47 = load i32, i32* %5, align 4
  %48 = icmp eq i32 %47, 1
  br i1 %48, label %49, label %52

49:                                               ; preds = %46
  %50 = load i32, i32* %2, align 4
  %51 = call i32 (i8*, ...) @printf(i8* getelementptr inbounds ([3 x i8], [3 x i8]* @.str.1, i64 0, i64 0), i32 %50)
  br label %56

52:                                               ; preds = %46
  br label %53

53:                                               ; preds = %52
  %54 = load i32, i32* %2, align 4
  %55 = add nsw i32 %54, 1
  store i32 %55, i32* %2, align 4
  br label %17

56:                                               ; preds = %49, %17
  ret i32 0
}

declare dso_local i32 @__isoc99_scanf(i8*, ...) #1

; Function Attrs: nounwind readonly
declare dso_local i64 @strlen(i8*) #2

declare dso_local i32 @printf(i8*, ...) #1


!llvm.module.flags = !{!0}
!llvm.ident = !{!1}

!0 = !{i32 1, !"wchar_size", i32 4}
!1 = !{!"clang version 10.0.0-4ubuntu1 "}
